Certificate:
    Data:
        Version: 3 (0x2)
        Serial Number: 4096 (0x1000)
    Signature Algorithm: sm2sign-with-sm3
        Issuer: C=CN, ST=Beijing, O=Milanac007 Ltd, OU=Milanac007 Ltd Certificate Authority, CN=Milanac007 Ltd Intermediate SM_CA
        Validity
            Not Before: Oct  9 03:34:15 2022 GMT
            Not After : Oct 19 03:34:15 2023 GMT
        Subject: C=CN, ST=Beijing, L=Beijing, O=Milanac007 Ltd, OU=Milanac007 Ltd Web Services, CN=192.168.123.96
        Subject Public Key Info:
            Public Key Algorithm: id-ecPublicKey
                Public-Key: (256 bit)
                pub:
                    04:c7:ea:90:8c:8f:69:f8:c2:71:91:00:62:eb:71:
                    1b:3c:6d:d7:7a:b8:b5:76:28:40:29:4b:ad:25:28:
                    11:8d:6b:ca:62:1f:34:ff:54:1f:11:4f:39:15:ae:
                    9d:ff:11:1a:00:1a:ec:4f:02:c8:1a:e6:34:57:85:
                    be:a8:69:71:ac
                ASN1 OID: sm2p256v1
                NIST CURVE: SM2
        X509v3 extensions:
            X509v3 Basic Constraints: 
                CA:FALSE
            Netscape Cert Type: 
                SSL Server
            Netscape Comment: 
                OpenSSL Generated Server Certificate
            X509v3 Subject Key Identifier: 
                A0:FC:24:0A:5D:22:E6:A6:20:C3:D9:61:9E:12:72:09:70:6F:95:3D
            X509v3 Authority Key Identifier: 
                keyid:A4:4C:C3:2F:A3:F1:21:50:F5:23:91:55:E3:C0:A6:A5:22:FD:05:8A
                DirName:/C=CN/ST=Beijing/L=Beijing/O=Milanac007 Ltd/OU=Milanac007 Ltd Certificate Authority/CN=Ltd Root SM_CA
                serial:10:00

            X509v3 Key Usage: critical
                Digital Signature, Key Encipherment
            X509v3 Extended Key Usage: 
                TLS Web Server Authentication
            X509v3 CRL Distribution Points: 

                Full Name:
                  URI:http://example.com/intermediate.crl.pem

            X509v3 Subject Alternative Name: 
                IP Address:192.168.123.96, IP Address:192.168.8.247
    Signature Algorithm: sm2sign-with-sm3
         30:45:02:21:00:ac:88:98:c4:56:7e:b2:2b:63:0f:21:be:d0:
         9b:25:4f:19:cb:14:76:db:56:33:72:31:e8:3c:f9:e1:42:33:
         aa:02:20:11:c3:56:30:bc:61:ef:9d:b6:0e:e6:f5:0b:85:60:
         71:66:30:11:07:5f:f5:55:3e:48:88:48:ea:b1:0a:6e:2a
-----BEGIN CERTIFICATE-----
MIIDvzCCA2WgAwIBAgICEAAwCgYIKoEcz1UBg3UwgZMxCzAJBgNVBAYTAkNOMRAw
DgYDVQQIDAdCZWlqaW5nMRcwFQYDVQQKDA5NaWxhbmFjMDA3IEx0ZDEtMCsGA1UE
CwwkTWlsYW5hYzAwNyBMdGQgQ2VydGlmaWNhdGUgQXV0aG9yaXR5MSowKAYDVQQD
DCFNaWxhbmFjMDA3IEx0ZCBJbnRlcm1lZGlhdGUgU01fQ0EwHhcNMjIxMDA5MDMz
NDE1WhcNMjMxMDE5MDMzNDE1WjCBiTELMAkGA1UEBhMCQ04xEDAOBgNVBAgMB0Jl
aWppbmcxEDAOBgNVBAcMB0JlaWppbmcxFzAVBgNVBAoMDk1pbGFuYWMwMDcgTHRk
MSQwIgYDVQQLDBtNaWxhbmFjMDA3IEx0ZCBXZWIgU2VydmljZXMxFzAVBgNVBAMM
DjE5Mi4xNjguMTIzLjk2MFkwEwYHKoZIzj0CAQYIKoEcz1UBgi0DQgAEx+qQjI9p
+MJxkQBi63EbPG3Xeri1dihAKUutJSgRjWvKYh80/1QfEU85Fa6d/xEaABrsTwLI
GuY0V4W+qGlxrKOCAa8wggGrMAkGA1UdEwQCMAAwEQYJYIZIAYb4QgEBBAQDAgZA
MDMGCWCGSAGG+EIBDQQmFiRPcGVuU1NMIEdlbmVyYXRlZCBTZXJ2ZXIgQ2VydGlm
aWNhdGUwHQYDVR0OBBYEFKD8JApdIuamIMPZYZ4Scglwb5U9MIHABgNVHSMEgbgw
gbWAFKRMwy+j8SFQ9SORVePApqUi/QWKoYGYpIGVMIGSMQswCQYDVQQGEwJDTjEQ
MA4GA1UECAwHQmVpamluZzEQMA4GA1UEBwwHQmVpamluZzEXMBUGA1UECgwOTWls
YW5hYzAwNyBMdGQxLTArBgNVBAsMJE1pbGFuYWMwMDcgTHRkIENlcnRpZmljYXRl
IEF1dGhvcml0eTEXMBUGA1UEAwwOTHRkIFJvb3QgU01fQ0GCAhAAMA4GA1UdDwEB
/wQEAwIFoDATBgNVHSUEDDAKBggrBgEFBQcDATA4BgNVHR8EMTAvMC2gK6Aphido
dHRwOi8vZXhhbXBsZS5jb20vaW50ZXJtZWRpYXRlLmNybC5wZW0wFQYDVR0RBA4w
DIcEwKh7YIcEwKgI9zAKBggqgRzPVQGDdQNIADBFAiEArIiYxFZ+sitjDyG+0Jsl
TxnLFHbbVjNyMeg8+eFCM6oCIBHDVjC8Ye+dtg7m9QuFYHFmMBEHX/VVPkiISOqx
Cm4q
-----END CERTIFICATE-----
